target datalayout = "e-m:e-p270:32:32-p271:32:32-p272:64:64-i64:64-i128:128-f80:128-n8:16:32:64-S128"
target triple = "x86_64-pc-linux-gnu"

; Function Attrs: mustprogress nounwind uwtable
define noundef i32 @_ZN4Cube11CornerIndexEiii(i32 noundef %0, i32 noundef %1, i32 noundef %2) #1 align 2 {
  %4 = alloca i32, align 4
  %5 = alloca i32, align 4
  %6 = alloca i32, align 4
  store i32 %0, ptr %4, align 4
  store i32 %1, ptr %5, align 4
  store i32 %2, ptr %6, align 4
  %7 = load i32, ptr %6, align 4
  %8 = shl i32 %7, 2
  %9 = load i32, ptr %5, align 4
  %10 = shl i32 %9, 1
  %11 = or i32 %8, %10
  %12 = load i32, ptr %4, align 4
  %13 = or i32 %11, %12
  ret i32 %13
}

; Function Attrs: mustprogress nounwind uwtable
define void @_ZN4Cube17FactorCornerIndexEiRiS0_S0_(i32 noundef %0, ptr noundef nonnull align 4 dereferenceable(4) %1, ptr noundef nonnull align 4 dereferenceable(4) %2, ptr noundef nonnull align 4 dereferenceable(4) %3) #1 align 2 {
  %5 = alloca i32, align 4
  %6 = alloca ptr, align 8
  %7 = alloca ptr, align 8
  %8 = alloca ptr, align 8
  store i32 %0, ptr %5, align 4
  store ptr %1, ptr %6, align 8
  store ptr %2, ptr %7, align 8
  store ptr %3, ptr %8, align 8
  %9 = load i32, ptr %5, align 4
  %10 = ashr i32 %9, 0
  %11 = and i32 %10, 1
  %12 = load ptr, ptr %6, align 8
  store i32 %11, ptr %12, align 4
  %13 = load i32, ptr %5, align 4
  %14 = ashr i32 %13, 1
  %15 = and i32 %14, 1
  %16 = load ptr, ptr %7, align 8
  store i32 %15, ptr %16, align 4
  %17 = load i32, ptr %5, align 4
  %18 = ashr i32 %17, 2
  %19 = and i32 %18, 1
  %20 = load ptr, ptr %8, align 8
  store i32 %19, ptr %20, align 4
  ret void
}

; Function Attrs: mustprogress nounwind uwtable
define noundef i32 @_ZN4Cube22FaceReflectCornerIndexEii(i32 noundef %0, i32 noundef %1) #1 align 2 {
  %3 = alloca i32, align 4
  %4 = alloca i32, align 4
  %5 = alloca i32, align 4
  %6 = alloca i32, align 4
  %7 = alloca i32, align 4
  %8 = alloca i32, align 4
  %9 = alloca i32, align 4
  store i32 %0, ptr %4, align 4
  store i32 %1, ptr %5, align 4
  %10 = load i32, ptr %5, align 4
  %11 = sdiv i32 %10, 2
  store i32 %11, ptr %6, align 4
  %12 = load i32, ptr %4, align 4
  call void @_ZN4Cube17FactorCornerIndexEiRiS0_S0_(i32 noundef %12, ptr noundef nonnull align 4 dereferenceable(4) %7, ptr noundef nonnull align 4 dereferenceable(4) %8, ptr noundef nonnull align 4 dereferenceable(4) %9)
  %13 = load i32, ptr %6, align 4
  switch i32 %13, label %35 [
    i32 0, label %14
    i32 1, label %21
    i32 2, label %28
  ]

14:                                               ; preds = %2
  %15 = load i32, ptr %7, align 4
  %16 = add nsw i32 %15, 1
  %17 = srem i32 %16, 2
  %18 = load i32, ptr %8, align 4
  %19 = load i32, ptr %9, align 4
  %20 = call noundef i32 @_ZN4Cube11CornerIndexEiii(i32 noundef %17, i32 noundef %18, i32 noundef %19)
  store i32 %20, ptr %3, align 4
  br label %36

21:                                               ; preds = %2
  %22 = load i32, ptr %7, align 4
  %23 = load i32, ptr %8, align 4
  %24 = add nsw i32 %23, 1
  %25 = srem i32 %24, 2
  %26 = load i32, ptr %9, align 4
  %27 = call noundef i32 @_ZN4Cube11CornerIndexEiii(i32 noundef %22, i32 noundef %25, i32 noundef %26)
  store i32 %27, ptr %3, align 4
  br label %36

28:                                               ; preds = %2
  %29 = load i32, ptr %7, align 4
  %30 = load i32, ptr %8, align 4
  %31 = load i32, ptr %9, align 4
  %32 = add nsw i32 %31, 1
  %33 = srem i32 %32, 2
  %34 = call noundef i32 @_ZN4Cube11CornerIndexEiii(i32 noundef %29, i32 noundef %30, i32 noundef %33)
  store i32 %34, ptr %3, align 4
  br label %36

35:                                               ; preds = %2
  store i32 -1, ptr %3, align 4
  br label %36

36:                                               ; preds = %35, %28, %21, %14
  %37 = load i32, ptr %3, align 4
  ret i32 %37
}